; Function Attrs: mustprogress nounwind uwtable
define internal fastcc void @_ZN12_GLOBAL__N_111StmtPrinter24VisitObjCBoolLiteralExprEPN5clang19ObjCBoolLiteralExprE(ptr %.0.val, i8 %.16.val) unnamed_addr #0 align 2 {
  %1 = trunc i8 %.16.val to i1
  %2 = select i1 %1, ptr @.str.65, ptr @.str.66
  %3 = select i1 %1, i64 10, i64 9
  %4 = getelementptr inbounds nuw i8, ptr %.0.val, i64 24
  %5 = load ptr, ptr %4, align 8
  %6 = getelementptr inbounds nuw i8, ptr %.0.val, i64 32
  %7 = load ptr, ptr %6, align 8
  %8 = ptrtoint ptr %5 to i64
  %9 = ptrtoint ptr %7 to i64
  %10 = sub i64 %8, %9
  %11 = icmp ugt i64 %3, %10
  br i1 %11, label %12, label %14

12:                                               ; preds = %0
  %13 = tail call noundef nonnull align 8 dereferenceable(48) ptr @_ZN4llvm11raw_ostream5writeEPKcm(ptr noundef nonnull align 8 dereferenceable(48) %.0.val, ptr noundef nonnull %2, i64 noundef %3) #19
  br label %_ZN4llvm11raw_ostreamlsEPKc.exit

14:                                               ; preds = %0
  tail call void @llvm.memcpy.p0.p0.i64(ptr noundef nonnull align 1 dereferenceable(9) %7, ptr noundef nonnull align 1 dereferenceable(9) %2, i64 %3, i1 false)
  %15 = load ptr, ptr %6, align 8
  %16 = getelementptr inbounds nuw i8, ptr %15, i64 %3
  store ptr %16, ptr %6, align 8
  br label %_ZN4llvm11raw_ostreamlsEPKc.exit

_ZN4llvm11raw_ostreamlsEPKc.exit:                 ; preds = %12, %14
  ret void
}